target datalayout = "e-m:e-p270:32:32-p271:32:32-p272:64:64-i64:64-i128:128-f80:128-n8:16:32:64-S128"
target triple = "x86_64-pc-linux-gnu"

%struct._generic_ARKInterp = type { ptr, ptr }
%struct._ARKInterpContent_Lagrange = type { i32, i32, ptr, ptr, i32, double }

; Function Attrs: nounwind uwtable
define i32 @arkInterpResize_Lagrange(ptr noundef %0, ptr noundef %1, ptr noundef %2, ptr noundef %3, i64 noundef %4, i64 noundef %5, ptr noundef %6) #0 {
  %8 = alloca i32, align 4
  %9 = alloca ptr, align 8
  %10 = alloca ptr, align 8
  %11 = alloca ptr, align 8
  %12 = alloca ptr, align 8
  %13 = alloca i64, align 8
  %14 = alloca i64, align 8
  %15 = alloca ptr, align 8
  %16 = alloca i32, align 4
  %17 = alloca i32, align 4
  store ptr %0, ptr %9, align 8, !tbaa !3
  store ptr %1, ptr %10, align 8, !tbaa !8
  store ptr %2, ptr %11, align 8, !tbaa !10
  store ptr %3, ptr %12, align 8, !tbaa !10
  store i64 %4, ptr %13, align 8, !tbaa !11
  store i64 %5, ptr %14, align 8, !tbaa !11
  store ptr %6, ptr %15, align 8, !tbaa !13
  call void @llvm.lifetime.start.p0(i64 4, ptr %16) #7
  %18 = load ptr, ptr %10, align 8, !tbaa !8
  %19 = icmp eq ptr %18, null
  br i1 %19, label %20, label %21

20:                                               ; preds = %7
  store i32 0, ptr %8, align 4
  store i32 1, ptr %17, align 4
  br label %65

21:                                               ; preds = %7
  %22 = load ptr, ptr %10, align 8, !tbaa !8
  %23 = getelementptr inbounds nuw %struct._generic_ARKInterp, ptr %22, i32 0, i32 0
  %24 = load ptr, ptr %23, align 8, !tbaa !35
  %25 = getelementptr inbounds nuw %struct._ARKInterpContent_Lagrange, ptr %24, i32 0, i32 2
  %26 = load ptr, ptr %25, align 8, !tbaa !69
  %27 = icmp ne ptr %26, null
  br i1 %27, label %28, label %60

28:                                               ; preds = %21
  store i32 0, ptr %16, align 4, !tbaa !24
  br label %29

29:                                               ; preds = %56, %28
  %30 = load i32, ptr %16, align 4, !tbaa !24
  %31 = load ptr, ptr %10, align 8, !tbaa !8
  %32 = getelementptr inbounds nuw %struct._generic_ARKInterp, ptr %31, i32 0, i32 0
  %33 = load ptr, ptr %32, align 8, !tbaa !35
  %34 = getelementptr inbounds nuw %struct._ARKInterpContent_Lagrange, ptr %33, i32 0, i32 1
  %35 = load i32, ptr %34, align 4, !tbaa !66
  %36 = icmp slt i32 %30, %35
  br i1 %36, label %37, label %59

37:                                               ; preds = %29
  %38 = load ptr, ptr %9, align 8, !tbaa !3
  %39 = load ptr, ptr %11, align 8, !tbaa !10
  %40 = load ptr, ptr %12, align 8, !tbaa !10
  %41 = load i64, ptr %13, align 8, !tbaa !11
  %42 = load i64, ptr %14, align 8, !tbaa !11
  %43 = load ptr, ptr %15, align 8, !tbaa !13
  %44 = load ptr, ptr %10, align 8, !tbaa !8
  %45 = getelementptr inbounds nuw %struct._generic_ARKInterp, ptr %44, i32 0, i32 0
  %46 = load ptr, ptr %45, align 8, !tbaa !35
  %47 = getelementptr inbounds nuw %struct._ARKInterpContent_Lagrange, ptr %46, i32 0, i32 2
  %48 = load ptr, ptr %47, align 8, !tbaa !69
  %49 = load i32, ptr %16, align 4, !tbaa !24
  %50 = sext i32 %49 to i64
  %51 = getelementptr inbounds ptr, ptr %48, i64 %50
  %52 = call i32 @arkResizeVec(ptr noundef %38, ptr noundef %39, ptr noundef %40, i64 noundef %41, i64 noundef %42, ptr noundef %43, ptr noundef %51)
  %53 = icmp ne i32 %52, 0
  br i1 %53, label %55, label %54

54:                                               ; preds = %37
  store i32 -20, ptr %8, align 4
  store i32 1, ptr %17, align 4
  br label %65

55:                                               ; preds = %37
  br label %56

56:                                               ; preds = %55
  %57 = load i32, ptr %16, align 4, !tbaa !24
  %58 = add nsw i32 %57, 1
  store i32 %58, ptr %16, align 4, !tbaa !24
  br label %29

59:                                               ; preds = %29
  br label %60

60:                                               ; preds = %59, %21
  %61 = load ptr, ptr %10, align 8, !tbaa !8
  %62 = getelementptr inbounds nuw %struct._generic_ARKInterp, ptr %61, i32 0, i32 0
  %63 = load ptr, ptr %62, align 8, !tbaa !35
  %64 = getelementptr inbounds nuw %struct._ARKInterpContent_Lagrange, ptr %63, i32 0, i32 4
  store i32 0, ptr %64, align 8, !tbaa !67
  store i32 0, ptr %8, align 4
  store i32 1, ptr %17, align 4
  br label %65

65:                                               ; preds = %60, %54, %20
  call void @llvm.lifetime.end.p0(i64 4, ptr %16) #7
  %66 = load i32, ptr %8, align 4
  ret i32 %66
}