; Function Attrs: nounwind uwtable
define range(i32 -20, 1) i32 @arkInterpResize_Lagrange(ptr noundef %0, ptr noundef readonly captures(address_is_null) %1, ptr noundef %2, ptr noundef %3, i64 noundef %4, i64 noundef %5, ptr noundef %6) #0 {
  %8 = icmp eq ptr %1, null
  br i1 %8, label %.loopexit17, label %9

9:                                                ; preds = %7
  %10 = load ptr, ptr %1, align 8, !tbaa !17
  %11 = getelementptr inbounds nuw i8, ptr %10, i64 8
  %12 = load ptr, ptr %11, align 8, !tbaa !55
  %.not = icmp eq ptr %12, null
  br i1 %.not, label %.loopexit, label %.preheader

.preheader:                                       ; preds = %9
  %13 = getelementptr inbounds nuw i8, ptr %10, i64 4
  %14 = load i32, ptr %13, align 4, !tbaa !56
  %15 = icmp sgt i32 %14, 0
  br i1 %15, label %.lr.ph, label %.loopexit

16:                                               ; preds = %.lr.ph
  %indvars.iv.next = add nuw nsw i64 %indvars.iv, 1
  %17 = load ptr, ptr %1, align 8, !tbaa !17
  %18 = getelementptr inbounds nuw i8, ptr %17, i64 4
  %19 = load i32, ptr %18, align 4, !tbaa !56
  %20 = sext i32 %19 to i64
  %21 = icmp slt i64 %indvars.iv.next, %20
  br i1 %21, label %.lr.ph, label %.loopexit

.lr.ph:                                           ; preds = %.preheader, %16
  %indvars.iv = phi i64 [ %indvars.iv.next, %16 ], [ 0, %.preheader ]
  %22 = phi ptr [ %17, %16 ], [ %10, %.preheader ]
  %23 = getelementptr inbounds nuw i8, ptr %22, i64 8
  %24 = load ptr, ptr %23, align 8, !tbaa !55
  %25 = getelementptr inbounds nuw ptr, ptr %24, i64 %indvars.iv
  %26 = tail call i32 @arkResizeVec(ptr noundef %0, ptr noundef %2, ptr noundef %3, i64 noundef %4, i64 noundef %5, ptr noundef %6, ptr noundef %25) #14
  %.not16 = icmp eq i32 %26, 0
  br i1 %.not16, label %.loopexit17, label %16

.loopexit:                                        ; preds = %16, %.preheader, %9
  %27 = phi ptr [ %10, %.preheader ], [ %10, %9 ], [ %17, %16 ]
  %28 = getelementptr inbounds nuw i8, ptr %27, i64 24
  store i32 0, ptr %28, align 8, !tbaa !57
  br label %.loopexit17

.loopexit17:                                      ; preds = %.lr.ph, %7, %.loopexit
  %.014 = phi i32 [ 0, %.loopexit ], [ 0, %7 ], [ -20, %.lr.ph ]
  ret i32 %.014
}